target datalayout = "e-m:e-p270:32:32-p271:32:32-p272:64:64-i64:64-i128:128-f80:128-n8:16:32:64-S128"
target triple = "x86_64-pc-linux-gnu"

%struct.FT_ListRec_ = type { ptr, ptr }
%struct.FT_MemoryRec_ = type { ptr, ptr, ptr, ptr }
%struct.FT_ListNodeRec_ = type { ptr, ptr, ptr }

; Function Attrs: nounwind uwtable
define hidden void @ft_mem_free(ptr noundef %0, ptr noundef %1) #0 {
  %3 = alloca ptr, align 8
  %4 = alloca ptr, align 8
  store ptr %0, ptr %3, align 8, !tbaa !185
  store ptr %1, ptr %4, align 8, !tbaa !41
  %5 = load ptr, ptr %4, align 8, !tbaa !41
  %6 = icmp ne ptr %5, null
  br i1 %6, label %7, label %13

7:                                                ; preds = %2
  %8 = load ptr, ptr %3, align 8, !tbaa !185
  %9 = getelementptr inbounds nuw %struct.FT_MemoryRec_, ptr %8, i32 0, i32 2
  %10 = load ptr, ptr %9, align 8, !tbaa !209
  %11 = load ptr, ptr %3, align 8, !tbaa !185
  %12 = load ptr, ptr %4, align 8, !tbaa !41
  call void %10(ptr noundef %11, ptr noundef %12)
  br label %13

13:                                               ; preds = %7, %2
  ret void
}

; Function Attrs: nounwind uwtable
define void @FT_List_Finalize(ptr noundef %0, ptr noundef %1, ptr noundef %2, ptr noundef %3) #0 {
  %5 = alloca ptr, align 8
  %6 = alloca ptr, align 8
  %7 = alloca ptr, align 8
  %8 = alloca ptr, align 8
  %9 = alloca ptr, align 8
  %10 = alloca i32, align 4
  %11 = alloca ptr, align 8
  %12 = alloca ptr, align 8
  store ptr %0, ptr %5, align 8, !tbaa !388
  store ptr %1, ptr %6, align 8, !tbaa !41
  store ptr %2, ptr %7, align 8, !tbaa !185
  store ptr %3, ptr %8, align 8, !tbaa !41
  call void @llvm.lifetime.start.p0(i64 8, ptr %9) #10
  %13 = load ptr, ptr %5, align 8, !tbaa !388
  %14 = icmp ne ptr %13, null
  br i1 %14, label %15, label %18

15:                                               ; preds = %4
  %16 = load ptr, ptr %7, align 8, !tbaa !185
  %17 = icmp ne ptr %16, null
  br i1 %17, label %19, label %18

18:                                               ; preds = %15, %4
  store i32 1, ptr %10, align 4
  br label %52

19:                                               ; preds = %15
  %20 = load ptr, ptr %5, align 8, !tbaa !388
  %21 = getelementptr inbounds nuw %struct.FT_ListRec_, ptr %20, i32 0, i32 0
  %22 = load ptr, ptr %21, align 8, !tbaa !390
  store ptr %22, ptr %9, align 8, !tbaa !364
  br label %23

23:                                               ; preds = %45, %19
  %24 = load ptr, ptr %9, align 8, !tbaa !364
  %25 = icmp ne ptr %24, null
  br i1 %25, label %26, label %47

26:                                               ; preds = %23
  call void @llvm.lifetime.start.p0(i64 8, ptr %11) #10
  %27 = load ptr, ptr %9, align 8, !tbaa !364
  %28 = getelementptr inbounds nuw %struct.FT_ListNodeRec_, ptr %27, i32 0, i32 1
  %29 = load ptr, ptr %28, align 8, !tbaa !391
  store ptr %29, ptr %11, align 8, !tbaa !364
  call void @llvm.lifetime.start.p0(i64 8, ptr %12) #10
  %30 = load ptr, ptr %9, align 8, !tbaa !364
  %31 = getelementptr inbounds nuw %struct.FT_ListNodeRec_, ptr %30, i32 0, i32 2
  %32 = load ptr, ptr %31, align 8, !tbaa !370
  store ptr %32, ptr %12, align 8, !tbaa !41
  %33 = load ptr, ptr %6, align 8, !tbaa !41
  %34 = icmp ne ptr %33, null
  br i1 %34, label %35, label %40

35:                                               ; preds = %26
  %36 = load ptr, ptr %6, align 8, !tbaa !41
  %37 = load ptr, ptr %7, align 8, !tbaa !185
  %38 = load ptr, ptr %12, align 8, !tbaa !41
  %39 = load ptr, ptr %8, align 8, !tbaa !41
  call void %36(ptr noundef %37, ptr noundef %38, ptr noundef %39)
  br label %40

40:                                               ; preds = %35, %26
  br label %41

41:                                               ; preds = %40
  %42 = load ptr, ptr %7, align 8, !tbaa !185
  %43 = load ptr, ptr %9, align 8, !tbaa !364
  call void @ft_mem_free(ptr noundef %42, ptr noundef %43)
  store ptr null, ptr %9, align 8, !tbaa !364
  br label %44

44:                                               ; preds = %41
  br label %45

45:                                               ; preds = %44
  %46 = load ptr, ptr %11, align 8, !tbaa !364
  store ptr %46, ptr %9, align 8, !tbaa !364
  call void @llvm.lifetime.end.p0(i64 8, ptr %12) #10
  call void @llvm.lifetime.end.p0(i64 8, ptr %11) #10
  br label %23, !llvm.loop !683

47:                                               ; preds = %23
  %48 = load ptr, ptr %5, align 8, !tbaa !388
  %49 = getelementptr inbounds nuw %struct.FT_ListRec_, ptr %48, i32 0, i32 0
  store ptr null, ptr %49, align 8, !tbaa !390
  %50 = load ptr, ptr %5, align 8, !tbaa !388
  %51 = getelementptr inbounds nuw %struct.FT_ListRec_, ptr %50, i32 0, i32 1
  store ptr null, ptr %51, align 8, !tbaa !394
  store i32 0, ptr %10, align 4
  br label %52

52:                                               ; preds = %47, %18
  call void @llvm.lifetime.end.p0(i64 8, ptr %9) #10
  %53 = load i32, ptr %10, align 4
  switch i32 %53, label %55 [
    i32 0, label %54
    i32 1, label %54
  ]

54:                                               ; preds = %52, %52
  ret void

55:                                               ; preds = %52
  unreachable
}