; Function Attrs: nounwind uwtable
define void @FT_List_Finalize(ptr noundef %0, ptr noundef readonly %1, ptr noundef %2, ptr noundef %3) local_unnamed_addr #0 {
  %5 = icmp ne ptr %0, null
  %6 = icmp ne ptr %2, null
  %or.cond = and i1 %5, %6
  br i1 %or.cond, label %7, label %18

7:                                                ; preds = %4
  %8 = load ptr, ptr %0, align 8, !tbaa !312
  %.not21 = icmp eq ptr %8, null
  br i1 %.not21, label %._crit_edge, label %.lr.ph

.lr.ph:                                           ; preds = %7
  %.not20 = icmp eq ptr %1, null
  %9 = getelementptr inbounds nuw i8, ptr %2, i64 16
  br i1 %.not20, label %ft_mem_free.exit.us, label %ft_mem_free.exit

ft_mem_free.exit.us:                              ; preds = %.lr.ph, %ft_mem_free.exit.us
  %.022.us = phi ptr [ %11, %ft_mem_free.exit.us ], [ %8, %.lr.ph ]
  %10 = getelementptr inbounds nuw i8, ptr %.022.us, i64 8
  %11 = load ptr, ptr %10, align 8, !tbaa !149
  %12 = load ptr, ptr %9, align 8, !tbaa !61
  tail call void %12(ptr noundef nonnull %2, ptr noundef nonnull %.022.us) #34
  %.not.us = icmp eq ptr %11, null
  br i1 %.not.us, label %._crit_edge, label %ft_mem_free.exit.us, !llvm.loop !335

ft_mem_free.exit:                                 ; preds = %.lr.ph, %ft_mem_free.exit
  %.022 = phi ptr [ %14, %ft_mem_free.exit ], [ %8, %.lr.ph ]
  %13 = getelementptr inbounds nuw i8, ptr %.022, i64 8
  %14 = load ptr, ptr %13, align 8, !tbaa !149
  %15 = getelementptr inbounds nuw i8, ptr %.022, i64 16
  %16 = load ptr, ptr %15, align 8, !tbaa !147
  tail call void %1(ptr noundef nonnull %2, ptr noundef %16, ptr noundef %3) #34
  %17 = load ptr, ptr %9, align 8, !tbaa !61
  tail call void %17(ptr noundef nonnull %2, ptr noundef nonnull %.022) #34
  %.not = icmp eq ptr %14, null
  br i1 %.not, label %._crit_edge, label %ft_mem_free.exit, !llvm.loop !335

._crit_edge:                                      ; preds = %ft_mem_free.exit, %ft_mem_free.exit.us, %7
  tail call void @llvm.memset.p0.i64(ptr noundef nonnull align 8 dereferenceable(16) %0, i8 0, i64 16, i1 false)
  br label %18

18:                                               ; preds = %4, %._crit_edge
  ret void
}